; Function Attrs: nounwind uwtable
define dso_local void @int_shr64(ptr dead_on_unwind noalias writable writeonly sret(%struct.Int) align 8 captures(none) initializes((0, 20)) %0, ptr noundef readonly byval(%struct.Int) align 8 captures(none) %1, i64 noundef %2) local_unnamed_addr #0 {
  %4 = getelementptr inbounds nuw i8, ptr %1, i64 16
  %5 = load i32, ptr %4, align 8
  %6 = add i32 %5, -8
  %7 = icmp ult i32 %6, 5
  %8 = load i64, ptr %1, align 8
  %9 = getelementptr inbounds nuw i8, ptr %1, i64 8
  %10 = load i64, ptr %9, align 8
  %11 = icmp eq i64 %2, 0
  br i1 %7, label %12, label %29

12:                                               ; preds = %3
  br i1 %11, label %i128_lshr64.exit, label %13

13:                                               ; preds = %12
  %14 = icmp ugt i64 %2, 127
  br i1 %14, label %i128_lshr64.exit, label %15

15:                                               ; preds = %13
  %16 = icmp eq i64 %2, 64
  br i1 %16, label %i128_lshr64.exit, label %17

17:                                               ; preds = %15
  %18 = icmp samesign ugt i64 %2, 64
  br i1 %18, label %19, label %22

19:                                               ; preds = %17
  %20 = add nsw i64 %2, -64
  %21 = lshr i64 %8, %20
  br label %i128_lshr64.exit

22:                                               ; preds = %17
  %23 = lshr i64 %10, %2
  %24 = sub nuw nsw i64 64, %2
  %25 = shl i64 %8, %24
  %26 = or disjoint i64 %23, %25
  %27 = lshr i64 %8, %2
  br label %i128_lshr64.exit

i128_lshr64.exit:                                 ; preds = %12, %13, %15, %19, %22
  %.sroa.015.0.i = phi i64 [ 0, %19 ], [ %27, %22 ], [ %8, %12 ], [ 0, %13 ], [ 0, %15 ]
  %.sroa.6.0.i = phi i64 [ %21, %19 ], [ %26, %22 ], [ %10, %12 ], [ 0, %13 ], [ %8, %15 ]
  %28 = tail call { i64, i64 } @i128_extend(i64 %.sroa.015.0.i, i64 %.sroa.6.0.i, i32 noundef %5)
  br label %61

29:                                               ; preds = %3
  br i1 %11, label %i128_ashr64.exit, label %30

30:                                               ; preds = %29
  %.not.i = icmp sgt i64 %8, -1
  %31 = icmp ugt i64 %2, 127
  br i1 %.not.i, label %32, label %46

32:                                               ; preds = %30
  br i1 %31, label %i128_ashr64.exit, label %33

33:                                               ; preds = %32
  %34 = icmp eq i64 %2, 64
  br i1 %34, label %i128_ashr64.exit, label %35

35:                                               ; preds = %33
  %36 = icmp samesign ugt i64 %2, 64
  br i1 %36, label %37, label %40

37:                                               ; preds = %35
  %38 = add nsw i64 %2, -64
  %39 = lshr i64 %8, %38
  br label %i128_ashr64.exit

40:                                               ; preds = %35
  %41 = lshr i64 %10, %2
  %42 = sub nuw nsw i64 64, %2
  %43 = shl i64 %8, %42
  %44 = or disjoint i64 %41, %43
  %45 = lshr i64 %8, %2
  br label %i128_ashr64.exit

46:                                               ; preds = %30
  br i1 %31, label %i128_ashr64.exit, label %47

47:                                               ; preds = %46
  %48 = icmp eq i64 %2, 64
  br i1 %48, label %i128_ashr64.exit, label %49

49:                                               ; preds = %47
  %50 = icmp samesign ugt i64 %2, 64
  br i1 %50, label %51, label %54

51:                                               ; preds = %49
  %52 = add nsw i64 %2, -64
  %53 = ashr i64 %8, %52
  br label %i128_ashr64.exit

54:                                               ; preds = %49
  %55 = ashr i64 %8, %2
  %56 = lshr i64 %10, %2
  %57 = sub nuw nsw i64 64, %2
  %58 = shl i64 %8, %57
  %59 = or disjoint i64 %56, %58
  br label %i128_ashr64.exit

i128_ashr64.exit:                                 ; preds = %29, %32, %33, %37, %40, %46, %47, %51, %54
  %.sroa.015.0.i6 = phi i64 [ -1, %51 ], [ %55, %54 ], [ %8, %29 ], [ -1, %46 ], [ -1, %47 ], [ 0, %37 ], [ %45, %40 ], [ 0, %32 ], [ 0, %33 ]
  %.sroa.7.0.i = phi i64 [ %53, %51 ], [ %59, %54 ], [ %10, %29 ], [ -1, %46 ], [ %8, %47 ], [ %39, %37 ], [ %44, %40 ], [ 0, %32 ], [ %8, %33 ]
  %60 = tail call { i64, i64 } @i128_extend(i64 %.sroa.015.0.i6, i64 %.sroa.7.0.i, i32 noundef %5)
  br label %61

61:                                               ; preds = %i128_ashr64.exit, %i128_lshr64.exit
  %.sink11 = phi { i64, i64 } [ %60, %i128_ashr64.exit ], [ %28, %i128_lshr64.exit ]
  %62 = extractvalue { i64, i64 } %.sink11, 0
  store i64 %62, ptr %0, align 8
  %63 = getelementptr inbounds nuw i8, ptr %0, i64 8
  %64 = extractvalue { i64, i64 } %.sink11, 1
  store i64 %64, ptr %63, align 8
  %65 = getelementptr inbounds nuw i8, ptr %0, i64 16
  store i32 %5, ptr %65, align 8
  ret void
}